; Function Attrs: mustprogress uwtable
define dso_local noundef i32 @_ZN4Luau20DataFlowGraphBuilder5visitEPNS_21AstStatCompoundAssignE(ptr noundef nonnull align 8 dereferenceable(336) %0, ptr noundef readonly captures(none) %1) local_unnamed_addr #2 align 2 {
  %3 = getelementptr inbounds nuw i8, ptr %1, i64 48
  %4 = load ptr, ptr %3, align 8, !tbaa !328
  %5 = tail call { ptr, ptr } @_ZN4Luau20DataFlowGraphBuilder9visitExprEPNS_7AstExprE(ptr noundef nonnull align 8 dereferenceable(336) %0, ptr noundef %4)
  %6 = getelementptr inbounds nuw i8, ptr %1, i64 40
  %7 = load ptr, ptr %6, align 8, !tbaa !331
  %8 = tail call { ptr, ptr } @_ZN4Luau20DataFlowGraphBuilder9visitExprEPNS_7AstExprE(ptr noundef nonnull align 8 dereferenceable(336) %0, ptr noundef %7)
  ret i32 1
}